; Function Attrs: mustprogress uwtable
define internal noundef nonnull ptr @_ZN7testing12_GLOBAL__N_124ParameterizedTestFactoryIN11opencv_test61RenderTestPolylines_RenderPolylinesPerformanceBGROCVTest_TestEE10CreateTestEv(ptr noundef nonnull align 8 dereferenceable(112) %0) unnamed_addr #4 align 2 personality ptr @__gxx_personality_v0 {
  %2 = getelementptr inbounds nuw i8, ptr %0, i64 8
  store ptr %2, ptr @_ZN7testing8internal12g_parameter_E, align 8, !tbaa !510
  %3 = tail call noalias noundef nonnull dereferenceable(680) ptr @_Znwm(i64 noundef 680) #31
  %4 = getelementptr inbounds nuw i8, ptr %3, i64 256
  tail call void @_ZN2cv3MatC1Ev(ptr noundef nonnull align 8 dereferenceable(416) %4) #30
  %5 = getelementptr inbounds nuw i8, ptr %3, i64 352
  tail call void @_ZN2cv3MatC1Ev(ptr noundef nonnull align 8 dereferenceable(96) %5) #30
  %6 = getelementptr inbounds nuw i8, ptr %3, i64 448
  tail call void @_ZN2cv3MatC1Ev(ptr noundef nonnull align 8 dereferenceable(96) %6) #30
  %7 = getelementptr inbounds nuw i8, ptr %3, i64 544
  tail call void @_ZN2cv3MatC1Ev(ptr noundef nonnull align 8 dereferenceable(96) %7) #30
  %8 = getelementptr inbounds nuw i8, ptr %3, i64 640
  tail call void @llvm.memset.p0.i64(ptr noundef nonnull align 8 dereferenceable(32) %8, i8 0, i64 32, i1 false)
  invoke void @_ZN4perf8TestBaseC2Ev(ptr noundef nonnull align 8 dereferenceable(673) %3)
          to label %10 unwind label %.body

.body:                                            ; preds = %1
  %9 = landingpad { ptr, i32 }
          cleanup
  tail call void @_ZN11opencv_test14TestFunctionalD2Ev(ptr noundef nonnull align 8 dereferenceable(416) %4) #30
  tail call void @_ZdlPv(ptr noundef nonnull %3) #32
  resume { ptr, i32 } %9

10:                                               ; preds = %1
  %11 = getelementptr inbounds nuw i8, ptr %3, i64 248
  store ptr getelementptr inbounds nuw inrange(-16, 56) (i8, ptr @_ZTVN11opencv_test61RenderTestPolylines_RenderPolylinesPerformanceBGROCVTest_TestE, i64 16), ptr %3, align 8, !tbaa !19
  store ptr getelementptr inbounds nuw inrange(-16, 16) (i8, ptr @_ZTVN11opencv_test61RenderTestPolylines_RenderPolylinesPerformanceBGROCVTest_TestE, i64 88), ptr %11, align 8, !tbaa !19
  %12 = getelementptr inbounds nuw i8, ptr %3, i64 672
  store i8 0, ptr %12, align 8, !tbaa !478
  ret ptr %3
}